target datalayout = "e-m:e-p270:32:32-p271:32:32-p272:64:64-i64:64-i128:128-f80:128-n8:16:32:64-S128"
target triple = "x86_64-pc-linux-gnu"

%struct.Gia_Man_t_ = type { ptr, ptr, i32, i32, i32, i32, ptr, ptr, i32, i32, i32, ptr, ptr, %struct.Vec_Int_t_, %struct.Vec_Int_t_, i32, i32, i32, %struct.Vec_Int_t_, ptr, ptr, ptr, i32, i32, i32, i32, ptr, ptr, ptr, ptr, ptr, i32, i32, ptr, i32, ptr, ptr, ptr, ptr, ptr, ptr, ptr, ptr, ptr, ptr, ptr, ptr, ptr, ptr, ptr, ptr, ptr, ptr, %struct.Vec_Int_t_, %struct.Vec_Int_t_, ptr, ptr, ptr, ptr, ptr, ptr, ptr, ptr, ptr, ptr, ptr, ptr, ptr, ptr, ptr, ptr, ptr, ptr, ptr, ptr, ptr, i32, float, float, ptr, ptr, i32, ptr, ptr, ptr, ptr, ptr, ptr, ptr, ptr, ptr, ptr, ptr, ptr, ptr, ptr, ptr, i64, i64, ptr, ptr, i32, i32, i32, i32, i32, i32, i32, i32, i32, i32, i32, i32, ptr, ptr, ptr, ptr, ptr, ptr, ptr, ptr, i32, i32, i32, ptr, i32, i32, ptr, ptr, ptr, ptr, ptr, ptr, i32, i32, ptr, %struct.Vec_Int_t_, %struct.Vec_Int_t_, %struct.Vec_Int_t_, ptr, ptr, ptr }
%struct.Vec_Int_t_ = type { i32, i32, ptr }
%struct.Gia_Obj_t_ = type <{ i64, i32 }>

; Function Attrs: nounwind uwtable
define internal ptr @Gia_ManObj(ptr noundef %0, i32 noundef %1) #0 {
  %3 = alloca ptr, align 8
  %4 = alloca i32, align 4
  store ptr %0, ptr %3, align 8
  store i32 %1, ptr %4, align 4
  %5 = load ptr, ptr %3, align 8
  %6 = getelementptr inbounds %struct.Gia_Man_t_, ptr %5, i32 0, i32 6
  %7 = load ptr, ptr %6, align 8
  %8 = load i32, ptr %4, align 4
  %9 = sext i32 %8 to i64
  %10 = getelementptr inbounds %struct.Gia_Obj_t_, ptr %7, i64 %9
  ret ptr %10
}

; Function Attrs: nounwind uwtable
define internal i32 @Vec_IntEntry(ptr noundef %0, i32 noundef %1) #0 {
  %3 = alloca ptr, align 8
  %4 = alloca i32, align 4
  store ptr %0, ptr %3, align 8
  store i32 %1, ptr %4, align 4
  %5 = load ptr, ptr %3, align 8
  %6 = getelementptr inbounds %struct.Vec_Int_t_, ptr %5, i32 0, i32 2
  %7 = load ptr, ptr %6, align 8
  %8 = load i32, ptr %4, align 4
  %9 = sext i32 %8 to i64
  %10 = getelementptr inbounds i32, ptr %7, i64 %9
  %11 = load i32, ptr %10, align 4
  ret i32 %11
}

; Function Attrs: nounwind uwtable
define internal i32 @Vec_IntSize(ptr noundef %0) #0 {
  %2 = alloca ptr, align 8
  store ptr %0, ptr %2, align 8
  %3 = load ptr, ptr %2, align 8
  %4 = getelementptr inbounds %struct.Vec_Int_t_, ptr %3, i32 0, i32 1
  %5 = load i32, ptr %4, align 4
  ret i32 %5
}

; Function Attrs: nounwind uwtable
define internal ptr @Gia_ParTestObj(ptr noundef %0, i32 noundef %1) #0 {
  %3 = alloca ptr, align 8
  %4 = alloca i32, align 4
  store ptr %0, ptr %3, align 8
  store i32 %1, ptr %4, align 4
  %5 = load ptr, ptr %3, align 8
  %6 = getelementptr inbounds %struct.Gia_Man_t_, ptr %5, i32 0, i32 99
  %7 = load ptr, ptr %6, align 8
  %8 = load i32, ptr %4, align 4
  %9 = load ptr, ptr %3, align 8
  %10 = getelementptr inbounds %struct.Gia_Man_t_, ptr %9, i32 0, i32 101
  %11 = load i32, ptr %10, align 8
  %12 = shl i32 %11, 1
  %13 = mul nsw i32 %8, %12
  %14 = sext i32 %13 to i64
  %15 = getelementptr inbounds i64, ptr %7, i64 %14
  ret ptr %15
}

; Function Attrs: nounwind uwtable
define internal i32 @Gia_ObjId(ptr noundef %0, ptr noundef %1) #0 {
  %3 = alloca ptr, align 8
  %4 = alloca ptr, align 8
  store ptr %0, ptr %3, align 8
  store ptr %1, ptr %4, align 8
  %5 = load ptr, ptr %4, align 8
  %6 = load ptr, ptr %3, align 8
  %7 = getelementptr inbounds %struct.Gia_Man_t_, ptr %6, i32 0, i32 6
  %8 = load ptr, ptr %7, align 8
  %9 = ptrtoint ptr %5 to i64
  %10 = ptrtoint ptr %8 to i64
  %11 = sub i64 %9, %10
  %12 = sdiv exact i64 %11, 12
  %13 = trunc i64 %12 to i32
  ret i32 %13
}

; Function Attrs: nounwind uwtable
define internal ptr @Gia_ManCo(ptr noundef %0, i32 noundef %1) #0 {
  %3 = alloca ptr, align 8
  %4 = alloca i32, align 4
  store ptr %0, ptr %3, align 8
  store i32 %1, ptr %4, align 4
  %5 = load ptr, ptr %3, align 8
  %6 = load ptr, ptr %3, align 8
  %7 = getelementptr inbounds %struct.Gia_Man_t_, ptr %6, i32 0, i32 12
  %8 = load ptr, ptr %7, align 8
  %9 = load i32, ptr %4, align 4
  %10 = call i32 @Vec_IntEntry(ptr noundef %8, i32 noundef %9)
  %11 = call ptr @Gia_ManObj(ptr noundef %5, i32 noundef %10)
  ret ptr %11
}

; Function Attrs: nounwind uwtable
define internal i32 @Gia_ManPoNum(ptr noundef %0) #0 {
  %2 = alloca ptr, align 8
  store ptr %0, ptr %2, align 8
  %3 = load ptr, ptr %2, align 8
  %4 = getelementptr inbounds %struct.Gia_Man_t_, ptr %3, i32 0, i32 12
  %5 = load ptr, ptr %4, align 8
  %6 = call i32 @Vec_IntSize(ptr noundef %5)
  %7 = load ptr, ptr %2, align 8
  %8 = getelementptr inbounds %struct.Gia_Man_t_, ptr %7, i32 0, i32 2
  %9 = load i32, ptr %8, align 8
  %10 = sub nsw i32 %6, %9
  ret i32 %10
}

; Function Attrs: nounwind uwtable
define internal i32 @Gia_ManRegNum(ptr noundef %0) #0 {
  %2 = alloca ptr, align 8
  store ptr %0, ptr %2, align 8
  %3 = load ptr, ptr %2, align 8
  %4 = getelementptr inbounds %struct.Gia_Man_t_, ptr %3, i32 0, i32 2
  %5 = load i32, ptr %4, align 8
  ret i32 %5
}

; Function Attrs: nounwind uwtable
define i32 @Gia_ManInseHighestScore(ptr noundef %0, ptr noundef %1) #0 {
  %3 = alloca ptr, align 8
  %4 = alloca ptr, align 8
  %5 = alloca ptr, align 8
  %6 = alloca ptr, align 8
  %7 = alloca ptr, align 8
  %8 = alloca ptr, align 8
  %9 = alloca i32, align 4
  %10 = alloca i32, align 4
  %11 = alloca i32, align 4
  %12 = alloca i32, align 4
  %13 = alloca i32, align 4
  %14 = alloca i32, align 4
  store ptr %0, ptr %3, align 8
  store ptr %1, ptr %4, align 8
  %15 = load ptr, ptr %3, align 8
  %16 = getelementptr inbounds %struct.Gia_Man_t_, ptr %15, i32 0, i32 101
  %17 = load i32, ptr %16, align 8
  %18 = mul nsw i32 64, %17
  store i32 %18, ptr %13, align 4
  %19 = load i32, ptr %13, align 4
  %20 = sext i32 %19 to i64
  %21 = call noalias ptr @calloc(i64 noundef %20, i64 noundef 4) #9
  store ptr %21, ptr %8, align 8
  store i32 0, ptr %11, align 4
  br label %22

22:                                               ; preds = %101, %2
  %23 = load i32, ptr %11, align 4
  %24 = load ptr, ptr %3, align 8
  %25 = call i32 @Gia_ManRegNum(ptr noundef %24)
  %26 = icmp slt i32 %23, %25
  br i1 %26, label %27, label %35

27:                                               ; preds = %22
  %28 = load ptr, ptr %3, align 8
  %29 = load ptr, ptr %3, align 8
  %30 = call i32 @Gia_ManPoNum(ptr noundef %29)
  %31 = load i32, ptr %11, align 4
  %32 = add nsw i32 %30, %31
  %33 = call ptr @Gia_ManCo(ptr noundef %28, i32 noundef %32)
  store ptr %33, ptr %5, align 8
  %34 = icmp ne ptr %33, null
  br label %35

35:                                               ; preds = %27, %22
  %36 = phi i1 [ false, %22 ], [ %34, %27 ]
  br i1 %36, label %37, label %104

37:                                               ; preds = %35
  %38 = load ptr, ptr %3, align 8
  %39 = load ptr, ptr %3, align 8
  %40 = load ptr, ptr %5, align 8
  %41 = call i32 @Gia_ObjId(ptr noundef %39, ptr noundef %40)
  %42 = call ptr @Gia_ParTestObj(ptr noundef %38, i32 noundef %41)
  store ptr %42, ptr %6, align 8
  %43 = load ptr, ptr %6, align 8
  %44 = load ptr, ptr %3, align 8
  %45 = getelementptr inbounds %struct.Gia_Man_t_, ptr %44, i32 0, i32 101
  %46 = load i32, ptr %45, align 8
  %47 = sext i32 %46 to i64
  %48 = getelementptr inbounds i64, ptr %43, i64 %47
  store ptr %48, ptr %7, align 8
  store i32 0, ptr %10, align 4
  br label %49

49:                                               ; preds = %97, %37
  %50 = load i32, ptr %10, align 4
  %51 = load ptr, ptr %3, align 8
  %52 = getelementptr inbounds %struct.Gia_Man_t_, ptr %51, i32 0, i32 101
  %53 = load i32, ptr %52, align 8
  %54 = icmp slt i32 %50, %53
  br i1 %54, label %55, label %100

55:                                               ; preds = %49
  store i32 0, ptr %12, align 4
  br label %56

56:                                               ; preds = %93, %55
  %57 = load i32, ptr %12, align 4
  %58 = icmp slt i32 %57, 64
  br i1 %58, label %59, label %96

59:                                               ; preds = %56
  %60 = load ptr, ptr %6, align 8
  %61 = load i32, ptr %10, align 4
  %62 = sext i32 %61 to i64
  %63 = getelementptr inbounds i64, ptr %60, i64 %62
  %64 = load i64, ptr %63, align 8
  %65 = load i32, ptr %12, align 4
  %66 = zext i32 %65 to i64
  %67 = lshr i64 %64, %66
  %68 = and i64 %67, 1
  %69 = icmp ne i64 %68, 0
  br i1 %69, label %81, label %70

70:                                               ; preds = %59
  %71 = load ptr, ptr %7, align 8
  %72 = load i32, ptr %10, align 4
  %73 = sext i32 %72 to i64
  %74 = getelementptr inbounds i64, ptr %71, i64 %73
  %75 = load i64, ptr %74, align 8
  %76 = load i32, ptr %12, align 4
  %77 = zext i32 %76 to i64
  %78 = lshr i64 %75, %77
  %79 = and i64 %78, 1
  %80 = icmp ne i64 %79, 0
  br label %81

81:                                               ; preds = %70, %59
  %82 = phi i1 [ true, %59 ], [ %80, %70 ]
  %83 = zext i1 %82 to i32
  %84 = load ptr, ptr %8, align 8
  %85 = load i32, ptr %10, align 4
  %86 = mul nsw i32 64, %85
  %87 = load i32, ptr %12, align 4
  %88 = add nsw i32 %86, %87
  %89 = sext i32 %88 to i64
  %90 = getelementptr inbounds i32, ptr %84, i64 %89
  %91 = load i32, ptr %90, align 4
  %92 = add nsw i32 %91, %83
  store i32 %92, ptr %90, align 4
  br label %93

93:                                               ; preds = %81
  %94 = load i32, ptr %12, align 4
  %95 = add nsw i32 %94, 1
  store i32 %95, ptr %12, align 4
  br label %56, !llvm.loop !14

96:                                               ; preds = %56
  br label %97

97:                                               ; preds = %96
  %98 = load i32, ptr %10, align 4
  %99 = add nsw i32 %98, 1
  store i32 %99, ptr %10, align 4
  br label %49, !llvm.loop !15

100:                                              ; preds = %49
  br label %101

101:                                              ; preds = %100
  %102 = load i32, ptr %11, align 4
  %103 = add nsw i32 %102, 1
  store i32 %103, ptr %11, align 4
  br label %22, !llvm.loop !16

104:                                              ; preds = %35
  store i32 0, ptr %14, align 4
  %105 = load ptr, ptr %8, align 8
  %106 = getelementptr inbounds i32, ptr %105, i64 0
  %107 = load i32, ptr %106, align 4
  store i32 %107, ptr %9, align 4
  store i32 1, ptr %11, align 4
  br label %108

108:                                              ; preds = %128, %104
  %109 = load i32, ptr %11, align 4
  %110 = load i32, ptr %13, align 4
  %111 = icmp slt i32 %109, %110
  br i1 %111, label %112, label %131

112:                                              ; preds = %108
  %113 = load i32, ptr %9, align 4
  %114 = load ptr, ptr %8, align 8
  %115 = load i32, ptr %11, align 4
  %116 = sext i32 %115 to i64
  %117 = getelementptr inbounds i32, ptr %114, i64 %116
  %118 = load i32, ptr %117, align 4
  %119 = icmp slt i32 %113, %118
  br i1 %119, label %120, label %127

120:                                              ; preds = %112
  %121 = load ptr, ptr %8, align 8
  %122 = load i32, ptr %11, align 4
  %123 = sext i32 %122 to i64
  %124 = getelementptr inbounds i32, ptr %121, i64 %123
  %125 = load i32, ptr %124, align 4
  store i32 %125, ptr %9, align 4
  %126 = load i32, ptr %11, align 4
  store i32 %126, ptr %14, align 4
  br label %127

127:                                              ; preds = %120, %112
  br label %128

128:                                              ; preds = %127
  %129 = load i32, ptr %11, align 4
  %130 = add nsw i32 %129, 1
  store i32 %130, ptr %11, align 4
  br label %108, !llvm.loop !17

131:                                              ; preds = %108
  %132 = load ptr, ptr %3, align 8
  %133 = call i32 @Gia_ManRegNum(ptr noundef %132)
  %134 = load i32, ptr %9, align 4
  %135 = sub nsw i32 %133, %134
  %136 = load ptr, ptr %4, align 8
  store i32 %135, ptr %136, align 4
  %137 = load ptr, ptr %8, align 8
  %138 = icmp ne ptr %137, null
  br i1 %138, label %139, label %141

139:                                              ; preds = %131
  %140 = load ptr, ptr %8, align 8
  call void @free(ptr noundef %140) #10
  store ptr null, ptr %8, align 8
  br label %142

141:                                              ; preds = %131
  br label %142

142:                                              ; preds = %141, %139
  %143 = load i32, ptr %14, align 4
  ret i32 %143
}